; Function Attrs: nounwind uwtable
define noundef ptr @Gia_ManEraCreateState(ptr noundef readonly captures(none) %0) local_unnamed_addr #0 {
  %2 = getelementptr inbounds nuw i8, ptr %0, i64 24
  %3 = load ptr, ptr %2, align 8
  %4 = tail call ptr @Mem_FixedEntryFetch(ptr noundef %3) #22
  %5 = getelementptr inbounds nuw i8, ptr %0, i64 32
  %6 = load ptr, ptr %5, align 8
  %7 = getelementptr i8, ptr %6, i64 4
  %.val = load i32, ptr %7, align 4
  store i32 %.val, ptr %4, align 4
  %8 = getelementptr inbounds nuw i8, ptr %4, i64 8
  store i32 0, ptr %8, align 4
  %9 = load ptr, ptr %5, align 8
  %10 = getelementptr inbounds nuw i8, ptr %9, i64 4
  %11 = load i32, ptr %10, align 4
  %12 = load i32, ptr %9, align 8
  %13 = icmp eq i32 %11, %12
  br i1 %13, label %14, label %.Vec_PtrGrow.exit11_crit_edge.i

.Vec_PtrGrow.exit11_crit_edge.i:                  ; preds = %1
  %.phi.trans.insert.i = getelementptr inbounds nuw i8, ptr %9, i64 8
  %.pre.i = load ptr, ptr %.phi.trans.insert.i, align 8
  br label %Vec_PtrPush.exit

14:                                               ; preds = %1
  %15 = icmp slt i32 %11, 16
  br i1 %15, label %16, label %24

16:                                               ; preds = %14
  %17 = getelementptr inbounds nuw i8, ptr %9, i64 8
  %18 = load ptr, ptr %17, align 8
  %.not9.i.i = icmp eq ptr %18, null
  br i1 %.not9.i.i, label %21, label %19

19:                                               ; preds = %16
  %20 = tail call dereferenceable_or_null(128) ptr @realloc(ptr noundef nonnull %18, i64 noundef 128) #23
  br label %Vec_PtrGrow.exit.i

21:                                               ; preds = %16
  %22 = tail call noalias dereferenceable_or_null(128) ptr @malloc(i64 noundef 128) #21
  br label %Vec_PtrGrow.exit.i

Vec_PtrGrow.exit.i:                               ; preds = %21, %19
  %23 = phi ptr [ %20, %19 ], [ %22, %21 ]
  store ptr %23, ptr %17, align 8
  store i32 16, ptr %9, align 8
  br label %Vec_PtrPush.exit

24:                                               ; preds = %14
  %25 = shl nuw nsw i32 %11, 1
  %26 = getelementptr inbounds nuw i8, ptr %9, i64 8
  %27 = load ptr, ptr %26, align 8
  %.not9.i10.i = icmp eq ptr %27, null
  %28 = zext nneg i32 %25 to i64
  %29 = shl nuw nsw i64 %28, 3
  br i1 %.not9.i10.i, label %32, label %30

30:                                               ; preds = %24
  %31 = tail call ptr @realloc(ptr noundef nonnull %27, i64 noundef %29) #23
  br label %34

32:                                               ; preds = %24
  %33 = tail call noalias ptr @malloc(i64 noundef %29) #21
  br label %34

34:                                               ; preds = %32, %30
  %35 = phi ptr [ %31, %30 ], [ %33, %32 ]
  store ptr %35, ptr %26, align 8
  store i32 %25, ptr %9, align 8
  br label %Vec_PtrPush.exit

Vec_PtrPush.exit:                                 ; preds = %.Vec_PtrGrow.exit11_crit_edge.i, %Vec_PtrGrow.exit.i, %34
  %36 = phi ptr [ %.pre.i, %.Vec_PtrGrow.exit11_crit_edge.i ], [ %35, %34 ], [ %23, %Vec_PtrGrow.exit.i ]
  %37 = load i32, ptr %10, align 4
  %38 = add nsw i32 %37, 1
  store i32 %38, ptr %10, align 4
  %39 = sext i32 %37 to i64
  %40 = getelementptr inbounds ptr, ptr %36, i64 %39
  store ptr %4, ptr %40, align 8
  ret ptr %4
}